ARM GAS  C:\Users\Karol\AppData\Local\Temp\ccYUVlQb.s 			page 1


   1              		.cpu cortex-m4
   2              		.arch armv7e-m
   3              		.fpu fpv4-sp-d16
   4              		.eabi_attribute 27, 1
   5              		.eabi_attribute 28, 1
   6              		.eabi_attribute 20, 1
   7              		.eabi_attribute 21, 1
   8              		.eabi_attribute 23, 3
   9              		.eabi_attribute 24, 1
  10              		.eabi_attribute 25, 1
  11              		.eabi_attribute 26, 1
  12              		.eabi_attribute 30, 1
  13              		.eabi_attribute 34, 1
  14              		.eabi_attribute 18, 4
  15              		.file	"canhandler.c"
  16              		.text
  17              	.Ltext0:
  18              		.cfi_sections	.debug_frame
  19              		.file 1 "Core/Src/canhandler.c"
  20              		.section	.text.can1TaskStart,"ax",%progbits
  21              		.align	1
  22              		.global	can1TaskStart
  23              		.syntax unified
  24              		.thumb
  25              		.thumb_func
  27              	can1TaskStart:
  28              	.LVL0:
  29              	.LFB325:
   1:Core/Src/canhandler.c **** #include "canhandler.h"
   2:Core/Src/canhandler.c **** #include "cmsis_os2.h"
   3:Core/Src/canhandler.c **** 
   4:Core/Src/canhandler.c **** xQueueHandle can1QueueHandle;
   5:Core/Src/canhandler.c **** xQueueHandle can2QueueHandle;
   6:Core/Src/canhandler.c **** 
   7:Core/Src/canhandler.c **** /* CAN1 TxMailbox */
   8:Core/Src/canhandler.c **** uint32_t can1TxMailbox[4];
   9:Core/Src/canhandler.c **** 
  10:Core/Src/canhandler.c **** /* CAN2 TxMailbox */
  11:Core/Src/canhandler.c **** uint32_t can2TxMailbox[4];
  12:Core/Src/canhandler.c **** 
  13:Core/Src/canhandler.c **** /* Welcome message */
  14:Core/Src/canhandler.c **** /* TODO add code stamp to pnpHeader */
  15:Core/Src/canhandler.c **** CAN_TxHeaderTypeDef pnpCANHeader =
  16:Core/Src/canhandler.c ****         {
  17:Core/Src/canhandler.c ****                 .DLC = 8,
  18:Core/Src/canhandler.c ****                 .ExtId = 0,
  19:Core/Src/canhandler.c ****                 .IDE = CAN_ID_STD,
  20:Core/Src/canhandler.c ****                 .RTR = CAN_RTR_DATA,
  21:Core/Src/canhandler.c ****                 .StdId = 0x500,
  22:Core/Src/canhandler.c ****                 .TransmitGlobalTime = DISABLE,
  23:Core/Src/canhandler.c ****         };
  24:Core/Src/canhandler.c **** 
  25:Core/Src/canhandler.c **** uint8_t pnpCANData[8] = {0xAA};
  26:Core/Src/canhandler.c **** 
  27:Core/Src/canhandler.c **** 
  28:Core/Src/canhandler.c **** void can1TaskStart(void *argument)
  29:Core/Src/canhandler.c **** {
ARM GAS  C:\Users\Karol\AppData\Local\Temp\ccYUVlQb.s 			page 2


  30              		.loc 1 29 1 view -0
  31              		.cfi_startproc
  32              		@ Volatile: function does not return.
  33              		@ args = 0, pretend = 0, frame = 32
  34              		@ frame_needed = 0, uses_anonymous_args = 0
  35              		.loc 1 29 1 is_stmt 0 view .LVU1
  36 0000 00B5     		push	{lr}
  37              		.cfi_def_cfa_offset 4
  38              		.cfi_offset 14, -4
  39 0002 89B0     		sub	sp, sp, #36
  40              		.cfi_def_cfa_offset 40
  30:Core/Src/canhandler.c ****     /* Create queue for CAN1 data*/
  31:Core/Src/canhandler.c ****     can1QueueHandle = xQueueCreate(5, sizeof(CAN_TxPackageType));
  41              		.loc 1 31 5 is_stmt 1 view .LVU2
  42              		.loc 1 31 23 is_stmt 0 view .LVU3
  43 0004 0022     		movs	r2, #0
  44 0006 1C21     		movs	r1, #28
  45 0008 0520     		movs	r0, #5
  46              	.LVL1:
  47              		.loc 1 31 23 view .LVU4
  48 000a FFF7FEFF 		bl	xQueueGenericCreate
  49              	.LVL2:
  50              		.loc 1 31 21 view .LVU5
  51 000e 184B     		ldr	r3, .L10
  52 0010 1860     		str	r0, [r3]
  32:Core/Src/canhandler.c **** 
  33:Core/Src/canhandler.c ****     if(can1QueueHandle == NULL)
  53              		.loc 1 33 5 is_stmt 1 view .LVU6
  54              		.loc 1 33 7 is_stmt 0 view .LVU7
  55 0012 68B1     		cbz	r0, .L7
  56              	.L2:
  34:Core/Src/canhandler.c ****         /* Error creating xQueue -> heap too small [?] */
  35:Core/Src/canhandler.c ****         __NOP();
  36:Core/Src/canhandler.c **** 
  37:Core/Src/canhandler.c ****     /* Start CAN1 */
  38:Core/Src/canhandler.c ****     HAL_CAN_Start(&hcan1);
  57              		.loc 1 38 5 is_stmt 1 view .LVU8
  58 0014 174C     		ldr	r4, .L10+4
  59 0016 2046     		mov	r0, r4
  60 0018 FFF7FEFF 		bl	HAL_CAN_Start
  61              	.LVL3:
  39:Core/Src/canhandler.c **** 
  40:Core/Src/canhandler.c ****     /* Send CAN hello message */
  41:Core/Src/canhandler.c ****     osDelay(pdMS_TO_TICKS(100));
  62              		.loc 1 41 5 view .LVU9
  63 001c 6420     		movs	r0, #100
  64 001e FFF7FEFF 		bl	osDelay
  65              	.LVL4:
  42:Core/Src/canhandler.c ****     HAL_CAN_AddTxMessage(&hcan1, &(pnpCANHeader), pnpCANData, can1TxMailbox);
  66              		.loc 1 42 5 view .LVU10
  67 0022 154B     		ldr	r3, .L10+8
  68 0024 154A     		ldr	r2, .L10+12
  69 0026 1649     		ldr	r1, .L10+16
  70 0028 2046     		mov	r0, r4
  71 002a FFF7FEFF 		bl	HAL_CAN_AddTxMessage
  72              	.LVL5:
  73 002e 0CE0     		b	.L5
ARM GAS  C:\Users\Karol\AppData\Local\Temp\ccYUVlQb.s 			page 3


  74              	.L7:
  35:Core/Src/canhandler.c **** 
  75              		.loc 1 35 9 view .LVU11
  76              		.syntax unified
  77              	@ 35 "Core/Src/canhandler.c" 1
  78 0030 00BF     		nop
  79              	@ 0 "" 2
  80              		.thumb
  81              		.syntax unified
  82 0032 EFE7     		b	.L2
  83              	.L8:
  43:Core/Src/canhandler.c **** 
  44:Core/Src/canhandler.c ****     /* Incoming package */
  45:Core/Src/canhandler.c ****     CAN_TxPackageType canPackage;
  46:Core/Src/canhandler.c **** 
  47:Core/Src/canhandler.c ****     for(;;)
  48:Core/Src/canhandler.c ****     {
  49:Core/Src/canhandler.c ****         /* Ongoing error on CAN1 */
  50:Core/Src/canhandler.c ****         if(hcan1.State == HAL_CAN_STATE_ERROR)
  51:Core/Src/canhandler.c ****             __NOP();
  84              		.loc 1 51 13 view .LVU12
  85              		.syntax unified
  86              	@ 51 "Core/Src/canhandler.c" 1
  87 0034 00BF     		nop
  88              	@ 0 "" 2
  89              		.thumb
  90              		.syntax unified
  91 0036 0EE0     		b	.L3
  92              	.L9:
  52:Core/Src/canhandler.c **** 
  53:Core/Src/canhandler.c ****         if(can1QueueHandle != NULL && xQueueReceive(can1QueueHandle, &canPackage, portMAX_DELAY) ==
  54:Core/Src/canhandler.c ****         {
  55:Core/Src/canhandler.c ****             HAL_CAN_AddTxMessage(&hcan1, &(canPackage.header), canPackage.data, can1TxMailbox);
  93              		.loc 1 55 13 view .LVU13
  94 0038 0F4B     		ldr	r3, .L10+8
  95 003a 079A     		ldr	r2, [sp, #28]
  96 003c 01A9     		add	r1, sp, #4
  97 003e 0D48     		ldr	r0, .L10+4
  98 0040 FFF7FEFF 		bl	HAL_CAN_AddTxMessage
  99              	.LVL6:
 100              	.L4:
  56:Core/Src/canhandler.c ****         }
  57:Core/Src/canhandler.c **** 
  58:Core/Src/canhandler.c ****         osDelay(1);
 101              		.loc 1 58 9 view .LVU14
 102 0044 0120     		movs	r0, #1
 103 0046 FFF7FEFF 		bl	osDelay
 104              	.LVL7:
  47:Core/Src/canhandler.c ****     {
 105              		.loc 1 47 5 view .LVU15
 106              	.L5:
  45:Core/Src/canhandler.c **** 
 107              		.loc 1 45 5 view .LVU16
  47:Core/Src/canhandler.c ****     {
 108              		.loc 1 47 5 view .LVU17
  50:Core/Src/canhandler.c ****             __NOP();
 109              		.loc 1 50 9 view .LVU18
ARM GAS  C:\Users\Karol\AppData\Local\Temp\ccYUVlQb.s 			page 4


  50:Core/Src/canhandler.c ****             __NOP();
 110              		.loc 1 50 17 is_stmt 0 view .LVU19
 111 004a 0A4B     		ldr	r3, .L10+4
 112 004c 93F82030 		ldrb	r3, [r3, #32]	@ zero_extendqisi2
 113 0050 DBB2     		uxtb	r3, r3
  50:Core/Src/canhandler.c ****             __NOP();
 114              		.loc 1 50 11 view .LVU20
 115 0052 052B     		cmp	r3, #5
 116 0054 EED0     		beq	.L8
 117              	.L3:
  53:Core/Src/canhandler.c ****         {
 118              		.loc 1 53 9 is_stmt 1 view .LVU21
  53:Core/Src/canhandler.c ****         {
 119              		.loc 1 53 28 is_stmt 0 view .LVU22
 120 0056 064B     		ldr	r3, .L10
 121 0058 1868     		ldr	r0, [r3]
  53:Core/Src/canhandler.c ****         {
 122              		.loc 1 53 11 view .LVU23
 123 005a 0028     		cmp	r0, #0
 124 005c F2D0     		beq	.L4
  53:Core/Src/canhandler.c ****         {
 125              		.loc 1 53 39 discriminator 1 view .LVU24
 126 005e 4FF0FF32 		mov	r2, #-1
 127 0062 01A9     		add	r1, sp, #4
 128 0064 FFF7FEFF 		bl	xQueueReceive
 129              	.LVL8:
  53:Core/Src/canhandler.c ****         {
 130              		.loc 1 53 36 discriminator 1 view .LVU25
 131 0068 0128     		cmp	r0, #1
 132 006a EBD1     		bne	.L4
 133 006c E4E7     		b	.L9
 134              	.L11:
 135 006e 00BF     		.align	2
 136              	.L10:
 137 0070 00000000 		.word	can1QueueHandle
 138 0074 00000000 		.word	hcan1
 139 0078 00000000 		.word	can1TxMailbox
 140 007c 00000000 		.word	pnpCANData
 141 0080 00000000 		.word	pnpCANHeader
 142              		.cfi_endproc
 143              	.LFE325:
 145              		.section	.text.can2TaskStart,"ax",%progbits
 146              		.align	1
 147              		.global	can2TaskStart
 148              		.syntax unified
 149              		.thumb
 150              		.thumb_func
 152              	can2TaskStart:
 153              	.LVL9:
 154              	.LFB326:
  59:Core/Src/canhandler.c ****     }
  60:Core/Src/canhandler.c **** }
  61:Core/Src/canhandler.c **** 
  62:Core/Src/canhandler.c **** void can2TaskStart(void *argument)
  63:Core/Src/canhandler.c **** {
 155              		.loc 1 63 1 is_stmt 1 view -0
 156              		.cfi_startproc
ARM GAS  C:\Users\Karol\AppData\Local\Temp\ccYUVlQb.s 			page 5


 157              		@ Volatile: function does not return.
 158              		@ args = 0, pretend = 0, frame = 32
 159              		@ frame_needed = 0, uses_anonymous_args = 0
 160              		.loc 1 63 1 is_stmt 0 view .LVU27
 161 0000 00B5     		push	{lr}
 162              		.cfi_def_cfa_offset 4
 163              		.cfi_offset 14, -4
 164 0002 89B0     		sub	sp, sp, #36
 165              		.cfi_def_cfa_offset 40
  64:Core/Src/canhandler.c ****     /* Create queue for CAN2 data */
  65:Core/Src/canhandler.c ****     can2QueueHandle = xQueueCreate(5, sizeof(CAN_TxPackageType));
 166              		.loc 1 65 5 is_stmt 1 view .LVU28
 167              		.loc 1 65 23 is_stmt 0 view .LVU29
 168 0004 0022     		movs	r2, #0
 169 0006 1C21     		movs	r1, #28
 170 0008 0520     		movs	r0, #5
 171              	.LVL10:
 172              		.loc 1 65 23 view .LVU30
 173 000a FFF7FEFF 		bl	xQueueGenericCreate
 174              	.LVL11:
 175              		.loc 1 65 21 view .LVU31
 176 000e 184B     		ldr	r3, .L21
 177 0010 1860     		str	r0, [r3]
  66:Core/Src/canhandler.c **** 
  67:Core/Src/canhandler.c ****     if(can2QueueHandle == NULL)
 178              		.loc 1 67 5 is_stmt 1 view .LVU32
 179              		.loc 1 67 7 is_stmt 0 view .LVU33
 180 0012 68B1     		cbz	r0, .L18
 181              	.L13:
  68:Core/Src/canhandler.c ****         /* Error creating xQueue -> heap too small [?] */
  69:Core/Src/canhandler.c ****         __NOP();
  70:Core/Src/canhandler.c **** 
  71:Core/Src/canhandler.c ****     /* Start CAN2 */
  72:Core/Src/canhandler.c ****     HAL_CAN_Start(&hcan2);
 182              		.loc 1 72 5 is_stmt 1 view .LVU34
 183 0014 174C     		ldr	r4, .L21+4
 184 0016 2046     		mov	r0, r4
 185 0018 FFF7FEFF 		bl	HAL_CAN_Start
 186              	.LVL12:
  73:Core/Src/canhandler.c **** 
  74:Core/Src/canhandler.c ****     /* Send CAN hello message */
  75:Core/Src/canhandler.c ****     osDelay(pdMS_TO_TICKS(100));
 187              		.loc 1 75 5 view .LVU35
 188 001c 6420     		movs	r0, #100
 189 001e FFF7FEFF 		bl	osDelay
 190              	.LVL13:
  76:Core/Src/canhandler.c ****     HAL_CAN_AddTxMessage(&hcan2, &(pnpCANHeader), pnpCANData, can2TxMailbox);
 191              		.loc 1 76 5 view .LVU36
 192 0022 154B     		ldr	r3, .L21+8
 193 0024 154A     		ldr	r2, .L21+12
 194 0026 1649     		ldr	r1, .L21+16
 195 0028 2046     		mov	r0, r4
 196 002a FFF7FEFF 		bl	HAL_CAN_AddTxMessage
 197              	.LVL14:
 198 002e 0CE0     		b	.L16
 199              	.L18:
  69:Core/Src/canhandler.c **** 
ARM GAS  C:\Users\Karol\AppData\Local\Temp\ccYUVlQb.s 			page 6


 200              		.loc 1 69 9 view .LVU37
 201              		.syntax unified
 202              	@ 69 "Core/Src/canhandler.c" 1
 203 0030 00BF     		nop
 204              	@ 0 "" 2
 205              		.thumb
 206              		.syntax unified
 207 0032 EFE7     		b	.L13
 208              	.L19:
  77:Core/Src/canhandler.c **** 
  78:Core/Src/canhandler.c ****     /* Incoming package */
  79:Core/Src/canhandler.c ****     CAN_TxPackageType canPackage;
  80:Core/Src/canhandler.c **** 
  81:Core/Src/canhandler.c ****     for(;;)
  82:Core/Src/canhandler.c ****     {
  83:Core/Src/canhandler.c ****         /* Ongoing error on CAN2 */
  84:Core/Src/canhandler.c ****         if(hcan2.State == HAL_CAN_STATE_ERROR)
  85:Core/Src/canhandler.c ****             __NOP();
 209              		.loc 1 85 13 view .LVU38
 210              		.syntax unified
 211              	@ 85 "Core/Src/canhandler.c" 1
 212 0034 00BF     		nop
 213              	@ 0 "" 2
 214              		.thumb
 215              		.syntax unified
 216 0036 0EE0     		b	.L14
 217              	.L20:
  86:Core/Src/canhandler.c **** 
  87:Core/Src/canhandler.c ****         if(can2QueueHandle != NULL && xQueueReceive(can2QueueHandle, &canPackage, portMAX_DELAY) ==
  88:Core/Src/canhandler.c ****         {
  89:Core/Src/canhandler.c ****             HAL_CAN_AddTxMessage(&hcan2, &(canPackage.header), canPackage.data, can2TxMailbox);
 218              		.loc 1 89 13 view .LVU39
 219 0038 0F4B     		ldr	r3, .L21+8
 220 003a 079A     		ldr	r2, [sp, #28]
 221 003c 01A9     		add	r1, sp, #4
 222 003e 0D48     		ldr	r0, .L21+4
 223 0040 FFF7FEFF 		bl	HAL_CAN_AddTxMessage
 224              	.LVL15:
 225              	.L15:
  90:Core/Src/canhandler.c ****         }
  91:Core/Src/canhandler.c **** 
  92:Core/Src/canhandler.c ****         osDelay(1);
 226              		.loc 1 92 9 view .LVU40
 227 0044 0120     		movs	r0, #1
 228 0046 FFF7FEFF 		bl	osDelay
 229              	.LVL16:
  81:Core/Src/canhandler.c ****     {
 230              		.loc 1 81 5 view .LVU41
 231              	.L16:
  79:Core/Src/canhandler.c **** 
 232              		.loc 1 79 5 view .LVU42
  81:Core/Src/canhandler.c ****     {
 233              		.loc 1 81 5 view .LVU43
  84:Core/Src/canhandler.c ****             __NOP();
 234              		.loc 1 84 9 view .LVU44
  84:Core/Src/canhandler.c ****             __NOP();
 235              		.loc 1 84 17 is_stmt 0 view .LVU45
ARM GAS  C:\Users\Karol\AppData\Local\Temp\ccYUVlQb.s 			page 7


 236 004a 0A4B     		ldr	r3, .L21+4
 237 004c 93F82030 		ldrb	r3, [r3, #32]	@ zero_extendqisi2
 238 0050 DBB2     		uxtb	r3, r3
  84:Core/Src/canhandler.c ****             __NOP();
 239              		.loc 1 84 11 view .LVU46
 240 0052 052B     		cmp	r3, #5
 241 0054 EED0     		beq	.L19
 242              	.L14:
  87:Core/Src/canhandler.c ****         {
 243              		.loc 1 87 9 is_stmt 1 view .LVU47
  87:Core/Src/canhandler.c ****         {
 244              		.loc 1 87 28 is_stmt 0 view .LVU48
 245 0056 064B     		ldr	r3, .L21
 246 0058 1868     		ldr	r0, [r3]
  87:Core/Src/canhandler.c ****         {
 247              		.loc 1 87 11 view .LVU49
 248 005a 0028     		cmp	r0, #0
 249 005c F2D0     		beq	.L15
  87:Core/Src/canhandler.c ****         {
 250              		.loc 1 87 39 discriminator 1 view .LVU50
 251 005e 4FF0FF32 		mov	r2, #-1
 252 0062 01A9     		add	r1, sp, #4
 253 0064 FFF7FEFF 		bl	xQueueReceive
 254              	.LVL17:
  87:Core/Src/canhandler.c ****         {
 255              		.loc 1 87 36 discriminator 1 view .LVU51
 256 0068 0128     		cmp	r0, #1
 257 006a EBD1     		bne	.L15
 258 006c E4E7     		b	.L20
 259              	.L22:
 260 006e 00BF     		.align	2
 261              	.L21:
 262 0070 00000000 		.word	can2QueueHandle
 263 0074 00000000 		.word	hcan2
 264 0078 00000000 		.word	can2TxMailbox
 265 007c 00000000 		.word	pnpCANData
 266 0080 00000000 		.word	pnpCANHeader
 267              		.cfi_endproc
 268              	.LFE326:
 270              		.global	pnpCANData
 271              		.section	.data.pnpCANData,"aw"
 272              		.align	2
 275              	pnpCANData:
 276 0000 AA00     		.ascii	"\252\000"
 277 0002 00000000 		.space	6
 277      0000
 278              		.global	pnpCANHeader
 279              		.section	.data.pnpCANHeader,"aw"
 280              		.align	2
 283              	pnpCANHeader:
 284 0000 00050000 		.word	1280
 285 0004 00000000 		.word	0
 286 0008 00000000 		.word	0
 287 000c 00000000 		.word	0
 288 0010 08000000 		.word	8
 289 0014 00       		.byte	0
 290 0015 000000   		.space	3
ARM GAS  C:\Users\Karol\AppData\Local\Temp\ccYUVlQb.s 			page 8


 291              		.global	can2TxMailbox
 292              		.section	.bss.can2TxMailbox,"aw",%nobits
 293              		.align	2
 296              	can2TxMailbox:
 297 0000 00000000 		.space	16
 297      00000000 
 297      00000000 
 297      00000000 
 298              		.global	can1TxMailbox
 299              		.section	.bss.can1TxMailbox,"aw",%nobits
 300              		.align	2
 303              	can1TxMailbox:
 304 0000 00000000 		.space	16
 304      00000000 
 304      00000000 
 304      00000000 
 305              		.global	can2QueueHandle
 306              		.section	.bss.can2QueueHandle,"aw",%nobits
 307              		.align	2
 310              	can2QueueHandle:
 311 0000 00000000 		.space	4
 312              		.global	can1QueueHandle
 313              		.section	.bss.can1QueueHandle,"aw",%nobits
 314              		.align	2
 317              	can1QueueHandle:
 318 0000 00000000 		.space	4
 319              		.text
 320              	.Letext0:
 321              		.file 2 "c:\\users\\karol\\appdata\\roaming\\code\\user\\globalstorage\\bmd.stm32-for-vscode\\@xpa
 322              		.file 3 "c:\\users\\karol\\appdata\\roaming\\code\\user\\globalstorage\\bmd.stm32-for-vscode\\@xpa
 323              		.file 4 "Middlewares/Third_Party/FreeRTOS/Source/portable/GCC/ARM_CM4F/portmacro.h"
 324              		.file 5 "Middlewares/Third_Party/FreeRTOS/Source/include/queue.h"
 325              		.file 6 "Drivers/CMSIS/Device/ST/STM32L4xx/Include/stm32l496xx.h"
 326              		.file 7 "Drivers/CMSIS/Device/ST/STM32L4xx/Include/stm32l4xx.h"
 327              		.file 8 "Drivers/STM32L4xx_HAL_Driver/Inc/stm32l4xx_hal_def.h"
 328              		.file 9 "Drivers/STM32L4xx_HAL_Driver/Inc/stm32l4xx_hal_can.h"
 329              		.file 10 "Core/Inc/can.h"
 330              		.file 11 "Core/Inc/canhandler.h"
 331              		.file 12 "Middlewares/Third_Party/FreeRTOS/Source/CMSIS_RTOS_V2/cmsis_os2.h"
ARM GAS  C:\Users\Karol\AppData\Local\Temp\ccYUVlQb.s 			page 9

